target datalayout = "e-m:e-p270:32:32-p271:32:32-p272:64:64-i64:64-i128:128-f80:128-n8:16:32:64-S128"
target triple = "x86_64-pc-linux-gnu"

@MaxBackends = external global i32, align 4
@NBuffers = external global i32, align 4
@PrivateRefCountOverflowed = internal global i32 0, align 4

; Function Attrs: nounwind uwtable
define dso_local void @LimitAdditionalPins(ptr noundef %0) #0 {
  %2 = alloca ptr, align 8
  %3 = alloca i32, align 4
  %4 = alloca i32, align 4
  %5 = alloca i32, align 4
  store ptr %0, ptr %2, align 8
  call void @llvm.lifetime.start.p0(i64 4, ptr %3) #10
  call void @llvm.lifetime.start.p0(i64 4, ptr %4) #10
  %6 = load ptr, ptr %2, align 8
  %7 = load i32, ptr %6, align 4
  %8 = icmp ule i32 %7, 1
  br i1 %8, label %9, label %10

9:                                                ; preds = %1
  store i32 1, ptr %5, align 4
  br label %32

10:                                               ; preds = %1
  %11 = load i32, ptr @MaxBackends, align 4
  %12 = add i32 %11, 6
  store i32 %12, ptr %3, align 4
  %13 = load i32, ptr @NBuffers, align 4
  %14 = load i32, ptr %3, align 4
  %15 = udiv i32 %13, %14
  store i32 %15, ptr %4, align 4
  %16 = load i32, ptr @PrivateRefCountOverflowed, align 4
  %17 = add i32 %16, 8
  %18 = load i32, ptr %4, align 4
  %19 = sub i32 %18, %17
  store i32 %19, ptr %4, align 4
  %20 = load i32, ptr %4, align 4
  %21 = icmp sle i32 %20, 0
  br i1 %21, label %22, label %23

22:                                               ; preds = %10
  store i32 1, ptr %4, align 4
  br label %23

23:                                               ; preds = %22, %10
  %24 = load ptr, ptr %2, align 8
  %25 = load i32, ptr %24, align 4
  %26 = load i32, ptr %4, align 4
  %27 = icmp ugt i32 %25, %26
  br i1 %27, label %28, label %31

28:                                               ; preds = %23
  %29 = load i32, ptr %4, align 4
  %30 = load ptr, ptr %2, align 8
  store i32 %29, ptr %30, align 4
  br label %31

31:                                               ; preds = %28, %23
  store i32 0, ptr %5, align 4
  br label %32

32:                                               ; preds = %31, %9
  call void @llvm.lifetime.end.p0(i64 4, ptr %4) #10
  call void @llvm.lifetime.end.p0(i64 4, ptr %3) #10
  %33 = load i32, ptr %5, align 4
  switch i32 %33, label %35 [
    i32 0, label %34
    i32 1, label %34
  ]

34:                                               ; preds = %32, %32
  ret void

35:                                               ; preds = %32
  unreachable
}