; Function Attrs: mustprogress nofree norecurse nosync nounwind willreturn memory(read, argmem: readwrite, inaccessiblemem: none) uwtable
define dso_local void @LimitAdditionalPins(ptr noundef captures(none) %0) local_unnamed_addr #7 {
  %2 = load i32, ptr %0, align 4
  %3 = icmp ult i32 %2, 2
  br i1 %3, label %13, label %4

4:                                                ; preds = %1
  %5 = load i32, ptr @MaxBackends, align 4
  %6 = add i32 %5, 6
  %7 = load i32, ptr @NBuffers, align 4
  %8 = udiv i32 %7, %6
  %9 = load i32, ptr @PrivateRefCountOverflowed, align 4
  %.neg7 = add i32 %8, -8
  %10 = sub i32 %.neg7, %9
  %spec.store.select = tail call i32 @llvm.smax.i32(i32 %10, i32 1)
  %11 = icmp ugt i32 %2, %spec.store.select
  br i1 %11, label %12, label %13

12:                                               ; preds = %4
  store i32 %spec.store.select, ptr %0, align 4
  br label %13

13:                                               ; preds = %4, %12, %1
  ret void
}